; Function Attrs: nounwind uwtable
define noalias ptr @OSSL_STORE_INFO_new(i32 noundef %0, ptr noundef %1) local_unnamed_addr #0 {
  %3 = tail call noalias ptr @CRYPTO_zalloc(i64 noundef 24, ptr noundef nonnull @.str.2, i32 noundef 609) #9
  %4 = icmp eq ptr %3, null
  br i1 %4, label %7, label %5

5:                                                ; preds = %2
  store i32 %0, ptr %3, align 8, !tbaa !68
  %6 = getelementptr inbounds nuw i8, ptr %3, i64 8
  store ptr %1, ptr %6, align 8, !tbaa !8
  br label %7

7:                                                ; preds = %2, %5
  ret ptr %3
}